; Function Attrs: nounwind sspstrong uwtable
define internal range(i32 0, 9) i32 @riscv_gdb_get_fpu(ptr noundef %0, ptr noundef %1, i32 noundef %2) #0 {
  %4 = alloca i32, align 4
  %5 = alloca i64, align 8
  %6 = tail call ptr @object_dynamic_cast_assert(ptr noundef %0, ptr noundef nonnull @.str.5, ptr noundef nonnull @.str.6, i32 noundef 56, ptr noundef nonnull @__func__.RISCV_CPU) #7
  %7 = icmp slt i32 %2, 32
  br i1 %7, label %8, label %28

8:                                                ; preds = %3
  %9 = getelementptr inbounds nuw i8, ptr %6, i64 16212
  %10 = load i32, ptr %9, align 4
  %11 = zext i32 %10 to i64
  %12 = and i64 %11, 8
  %.not = icmp eq i64 %12, 0
  br i1 %.not, label %19, label %13

13:                                               ; preds = %8
  %14 = getelementptr inbounds nuw i8, ptr %6, i64 15880
  %15 = sext i32 %2 to i64
  %16 = getelementptr inbounds [32 x i64], ptr %14, i64 0, i64 %15
  %17 = load i64, ptr %16, align 8
  call void @llvm.lifetime.start.p0(i64 8, ptr nonnull %5) #7
  store i64 %17, ptr %5, align 8
  %18 = call ptr @g_byte_array_append(ptr noundef %1, ptr noundef nonnull %5, i32 noundef 8) #7
  call void @llvm.lifetime.end.p0(i64 8, ptr nonnull %5) #7
  br label %28

19:                                               ; preds = %8
  %20 = and i64 %11, 32
  %.not12 = icmp eq i64 %20, 0
  br i1 %.not12, label %28, label %21

21:                                               ; preds = %19
  %22 = getelementptr inbounds nuw i8, ptr %6, i64 15880
  %23 = sext i32 %2 to i64
  %24 = getelementptr inbounds [32 x i64], ptr %22, i64 0, i64 %23
  %25 = load i64, ptr %24, align 8
  %26 = trunc i64 %25 to i32
  call void @llvm.lifetime.start.p0(i64 4, ptr nonnull %4) #7
  store i32 %26, ptr %4, align 4
  %27 = call ptr @g_byte_array_append(ptr noundef %1, ptr noundef nonnull %4, i32 noundef 4) #7
  call void @llvm.lifetime.end.p0(i64 4, ptr nonnull %4) #7
  br label %28

28:                                               ; preds = %3, %19, %21, %13
  %.0 = phi i32 [ 8, %13 ], [ 4, %21 ], [ 0, %19 ], [ 0, %3 ]
  ret i32 %.0
}